
kernel_cap_2:     file format elf64-littleriscv


Disassembly of section .text:

0000000080000000 <reset_vector>:
    80000000:	0040006f          	j	80000004 <do_reset>

0000000080000004 <do_reset>:
    80000004:	00100293          	li	t0,1
    80000008:	00100313          	li	t1,1
    8000000c:	00301397          	auipc	t2,0x301
    80000010:	fb438393          	addi	t2,t2,-76 # 80300fc0 <cap_matrix>
    80000014:	00102e17          	auipc	t3,0x102
    80000018:	face0e13          	addi	t3,t3,-84 # 80101fc0 <checkcap_stack+0x1000>
    8000001c:	00000e93          	li	t4,0
    80000020:	7c229073          	csrw	mcapctl,t0
    80000024:	81031073          	csrw	ucurrcap,t1
    80000028:	81239073          	csrw	ucapmatrixbase,t2
    8000002c:	7c3e1073          	csrw	mcheckcapsp,t3
    80000030:	813e9073          	csrw	unocrosscomp,t4
    80000034:	00000093          	li	ra,0
    80000038:	00000113          	li	sp,0
    8000003c:	00000193          	li	gp,0
    80000040:	00000213          	li	tp,0
    80000044:	00000293          	li	t0,0
    80000048:	00000313          	li	t1,0
    8000004c:	00000393          	li	t2,0
    80000050:	00000413          	li	s0,0
    80000054:	00000493          	li	s1,0
    80000058:	00000513          	li	a0,0
    8000005c:	00000593          	li	a1,0
    80000060:	00000613          	li	a2,0
    80000064:	00000693          	li	a3,0
    80000068:	00000713          	li	a4,0
    8000006c:	00000793          	li	a5,0
    80000070:	00000813          	li	a6,0
    80000074:	00000893          	li	a7,0
    80000078:	00000913          	li	s2,0
    8000007c:	00000993          	li	s3,0
    80000080:	00000a13          	li	s4,0
    80000084:	00000a93          	li	s5,0
    80000088:	00000b13          	li	s6,0
    8000008c:	00000b93          	li	s7,0
    80000090:	00000c13          	li	s8,0
    80000094:	00000c93          	li	s9,0
    80000098:	00000d13          	li	s10,0
    8000009c:	00000d93          	li	s11,0
    800000a0:	00000e13          	li	t3,0
    800000a4:	00000e93          	li	t4,0
    800000a8:	00000f13          	li	t5,0
    800000ac:	00000f93          	li	t6,0
    800000b0:	34001073          	csrw	mscratch,zero
    800000b4:	00000297          	auipc	t0,0x0
    800000b8:	02c28293          	addi	t0,t0,44 # 800000e0 <trap_vector>
    800000bc:	30529073          	csrw	mtvec,t0
    800000c0:	30502373          	csrr	t1,mtvec
    800000c4:	00629063          	bne	t0,t1,800000c4 <do_reset+0xc0>
    800000c8:	00306117          	auipc	sp,0x306
    800000cc:	f3810113          	addi	sp,sp,-200 # 80306000 <stack+0x1000>
    800000d0:	f14026f3          	csrr	a3,mhartid
    800000d4:	00068463          	beqz	a3,800000dc <do_reset+0xd8>
    800000d8:	4620006f          	j	8000053a <boot_secondary>
    800000dc:	3fe0006f          	j	800004da <boot_primary>

00000000800000e0 <trap_vector>:
    800000e0:	342023f3          	csrr	t2,mcause
    800000e4:	01200e13          	li	t3,18
    800000e8:	1c7e0463          	beq	t3,t2,800002b0 <CHECKCAP_CROSS_COMP>
    800000ec:	01000e13          	li	t3,16
    800000f0:	127e0c63          	beq	t3,t2,80000228 <CHECKCAP_254>
    800000f4:	01100e13          	li	t3,17
    800000f8:	167e0a63          	beq	t3,t2,8000026c <CHECKCAP_NON_254>
    800000fc:	01300e13          	li	t3,19
    80000100:	287e0e63          	beq	t3,t2,8000039c <CHECKCAP_ALL_COND_FAIL>
    80000104:	34011073          	csrw	mscratch,sp
    80000108:	f0010113          	addi	sp,sp,-256
    8000010c:	00113423          	sd	ra,8(sp)
    80000110:	00313c23          	sd	gp,24(sp)
    80000114:	02413023          	sd	tp,32(sp)
    80000118:	02513423          	sd	t0,40(sp)
    8000011c:	02613823          	sd	t1,48(sp)
    80000120:	02713c23          	sd	t2,56(sp)
    80000124:	04813023          	sd	s0,64(sp)
    80000128:	04913423          	sd	s1,72(sp)
    8000012c:	04a13823          	sd	a0,80(sp)
    80000130:	04b13c23          	sd	a1,88(sp)
    80000134:	06c13023          	sd	a2,96(sp)
    80000138:	06d13423          	sd	a3,104(sp)
    8000013c:	06e13823          	sd	a4,112(sp)
    80000140:	06f13c23          	sd	a5,120(sp)
    80000144:	09013023          	sd	a6,128(sp)
    80000148:	09113423          	sd	a7,136(sp)
    8000014c:	09213823          	sd	s2,144(sp)
    80000150:	09313c23          	sd	s3,152(sp)
    80000154:	0b413023          	sd	s4,160(sp)
    80000158:	0b513423          	sd	s5,168(sp)
    8000015c:	0b613823          	sd	s6,176(sp)
    80000160:	0b713c23          	sd	s7,184(sp)
    80000164:	0d813023          	sd	s8,192(sp)
    80000168:	0d913423          	sd	s9,200(sp)
    8000016c:	0da13823          	sd	s10,208(sp)
    80000170:	0db13c23          	sd	s11,216(sp)
    80000174:	0fc13023          	sd	t3,224(sp)
    80000178:	0fd13423          	sd	t4,232(sp)
    8000017c:	0fe13823          	sd	t5,240(sp)
    80000180:	0ff13c23          	sd	t6,248(sp)
    80000184:	34102573          	csrr	a0,mepc
    80000188:	00a13023          	sd	a0,0(sp)
    8000018c:	340025f3          	csrr	a1,mscratch
    80000190:	00b13823          	sd	a1,16(sp)
    80000194:	34202573          	csrr	a0,mcause
    80000198:	00010593          	mv	a1,sp
    8000019c:	22a000ef          	jal	ra,800003c6 <trap_handler>
    800001a0:	00013503          	ld	a0,0(sp)
    800001a4:	34151073          	csrw	mepc,a0
    800001a8:	00813083          	ld	ra,8(sp)
    800001ac:	01813183          	ld	gp,24(sp)
    800001b0:	02013203          	ld	tp,32(sp)
    800001b4:	02813283          	ld	t0,40(sp)
    800001b8:	03013303          	ld	t1,48(sp)
    800001bc:	03813383          	ld	t2,56(sp)
    800001c0:	04013403          	ld	s0,64(sp)
    800001c4:	04813483          	ld	s1,72(sp)
    800001c8:	05013503          	ld	a0,80(sp)
    800001cc:	05813583          	ld	a1,88(sp)
    800001d0:	06013603          	ld	a2,96(sp)
    800001d4:	06813683          	ld	a3,104(sp)
    800001d8:	07013703          	ld	a4,112(sp)
    800001dc:	07813783          	ld	a5,120(sp)
    800001e0:	08013803          	ld	a6,128(sp)
    800001e4:	08813883          	ld	a7,136(sp)
    800001e8:	09013903          	ld	s2,144(sp)
    800001ec:	09813983          	ld	s3,152(sp)
    800001f0:	0a013a03          	ld	s4,160(sp)
    800001f4:	0a813a83          	ld	s5,168(sp)
    800001f8:	0b013b03          	ld	s6,176(sp)
    800001fc:	0b813b83          	ld	s7,184(sp)
    80000200:	0c013c03          	ld	s8,192(sp)
    80000204:	0c813c83          	ld	s9,200(sp)
    80000208:	0d013d03          	ld	s10,208(sp)
    8000020c:	0d813d83          	ld	s11,216(sp)
    80000210:	0e013e03          	ld	t3,224(sp)
    80000214:	0e813e83          	ld	t4,232(sp)
    80000218:	0f013f03          	ld	t5,240(sp)
    8000021c:	0f813f83          	ld	t6,248(sp)
    80000220:	01013103          	ld	sp,16(sp)
    80000224:	30200073          	mret

0000000080000228 <CHECKCAP_254>:
    80000228:	7c3023f3          	csrr	t2,mcheckcapsp
    8000022c:	ff838393          	addi	t2,t2,-8
    80000230:	0013b023          	sd	ra,0(t2)
    80000234:	7c339073          	csrw	mcheckcapsp,t2
    80000238:	00100393          	li	t2,1
    8000023c:	81339073          	csrw	unocrosscomp,t2
    80000240:	00000393          	li	t2,0
    80000244:	00000097          	auipc	ra,0x0
    80000248:	00c08093          	addi	ra,ra,12 # 80000250 <CHECKCAP_254_RETURN>
    8000024c:	30200073          	mret

0000000080000250 <CHECKCAP_254_RETURN>:
    80000250:	7c3023f3          	csrr	t2,mcheckcapsp
    80000254:	0003b083          	ld	ra,0(t2)
    80000258:	00838393          	addi	t2,t2,8
    8000025c:	7c339073          	csrw	mcheckcapsp,t2
    80000260:	00000393          	li	t2,0
    80000264:	81339073          	csrw	unocrosscomp,t2
    80000268:	00008067          	ret

000000008000026c <CHECKCAP_NON_254>:
    8000026c:	7c3023f3          	csrr	t2,mcheckcapsp
    80000270:	ff838393          	addi	t2,t2,-8
    80000274:	0013b023          	sd	ra,0(t2)
    80000278:	7c339073          	csrw	mcheckcapsp,t2
    8000027c:	00000393          	li	t2,0
    80000280:	81339073          	csrw	unocrosscomp,t2
    80000284:	00000097          	auipc	ra,0x0
    80000288:	00c08093          	addi	ra,ra,12 # 80000290 <CHECKCAP_NON_254_RETURN>
    8000028c:	30200073          	mret

0000000080000290 <CHECKCAP_NON_254_RETURN>:
    80000290:	7c3023f3          	csrr	t2,mcheckcapsp
    80000294:	0003b083          	ld	ra,0(t2)
    80000298:	00838393          	addi	t2,t2,8
    8000029c:	7c339073          	csrw	mcheckcapsp,t2
    800002a0:	00100393          	li	t2,1
    800002a4:	81339073          	csrw	unocrosscomp,t2
    800002a8:	00000393          	li	t2,0
    800002ac:	00008067          	ret

00000000800002b0 <CHECKCAP_CROSS_COMP>:
    800002b0:	7c3023f3          	csrr	t2,mcheckcapsp
    800002b4:	fd838393          	addi	t2,t2,-40
    800002b8:	0013b423          	sd	ra,8(t2)
    800002bc:	0023b823          	sd	sp,16(t2)
    800002c0:	0033bc23          	sd	gp,24(t2)
    800002c4:	0243b023          	sd	tp,32(t2)
    800002c8:	81002e73          	csrr	t3,ucurrcap
    800002cc:	01c3b023          	sd	t3,0(t2)
    800002d0:	812022f3          	csrr	t0,ucapmatrixbase
    800002d4:	81002373          	csrr	t1,ucurrcap
    800002d8:	811023f3          	csrr	t2,utargetcap
    800002dc:	00000e13          	li	t3,0
    800002e0:	04000e93          	li	t4,64
    800002e4:	03d3e263          	bltu	t2,t4,80000308 <Found_index>
    800002e8:	001e0e13          	addi	t3,t3,1
    800002ec:	040e8e93          	addi	t4,t4,64
    800002f0:	01d3ec63          	bltu	t2,t4,80000308 <Found_index>
    800002f4:	001e0e13          	addi	t3,t3,1
    800002f8:	040e8e93          	addi	t4,t4,64
    800002fc:	01d3e663          	bltu	t2,t4,80000308 <Found_index>
    80000300:	001e0e13          	addi	t3,t3,1
    80000304:	040e8e93          	addi	t4,t4,64

0000000080000308 <Found_index>:
    80000308:	00531f13          	slli	t5,t1,0x5
    8000030c:	003e1e13          	slli	t3,t3,0x3
    80000310:	01cf0f33          	add	t5,t5,t3
    80000314:	01e282b3          	add	t0,t0,t5
    80000318:	0002be03          	ld	t3,0(t0)
    8000031c:	407e8eb3          	sub	t4,t4,t2
    80000320:	fffe8e93          	addi	t4,t4,-1
    80000324:	00100f13          	li	t5,1
    80000328:	03ff1f13          	slli	t5,t5,0x3f
    8000032c:	01df5f33          	srl	t5,t5,t4
    80000330:	01ee7e33          	and	t3,t3,t5
    80000334:	060e0263          	beqz	t3,80000398 <CAPABILITY_CHECK_FAIL>
    80000338:	81039073          	csrw	ucurrcap,t2
    8000033c:	00000293          	li	t0,0
    80000340:	00000313          	li	t1,0
    80000344:	00000393          	li	t2,0
    80000348:	00000e13          	li	t3,0
    8000034c:	00000e93          	li	t4,0
    80000350:	00000f13          	li	t5,0
    80000354:	00000f93          	li	t6,0
    80000358:	34001073          	csrw	mscratch,zero
    8000035c:	00000097          	auipc	ra,0x0
    80000360:	00c08093          	addi	ra,ra,12 # 80000368 <CHECKCAP_CROSS_COMP_RETURN>
    80000364:	30200073          	mret

0000000080000368 <CHECKCAP_CROSS_COMP_RETURN>:
    80000368:	7c3023f3          	csrr	t2,mcheckcapsp
    8000036c:	0083b083          	ld	ra,8(t2)
    80000370:	0103b103          	ld	sp,16(t2)
    80000374:	0183b183          	ld	gp,24(t2)
    80000378:	0203b203          	ld	tp,32(t2)
    8000037c:	0003b303          	ld	t1,0(t2)
    80000380:	81031073          	csrw	ucurrcap,t1
    80000384:	02838393          	addi	t2,t2,40
    80000388:	7c339073          	csrw	mcheckcapsp,t2
    8000038c:	00000313          	li	t1,0
    80000390:	00000393          	li	t2,0
    80000394:	00008067          	ret

0000000080000398 <CAPABILITY_CHECK_FAIL>:
    80000398:	0fe0006f          	j	80000496 <print_capability_fail>

000000008000039c <CHECKCAP_ALL_COND_FAIL>:
    8000039c:	0b60006f          	j	80000452 <print_checkcap_all_cond_fail>

00000000800003a0 <dummy>:
    800003a0:	0220000b          	checkcap	34
    800003a4:	1101                	addi	sp,sp,-32
    800003a6:	ec22                	sd	s0,24(sp)
    800003a8:	1000                	addi	s0,sp,32
    800003aa:	47a9                	li	a5,10
    800003ac:	fef42623          	sw	a5,-20(s0)
    800003b0:	fec42783          	lw	a5,-20(s0)
    800003b4:	0dc7879b          	addiw	a5,a5,220
    800003b8:	fef42623          	sw	a5,-20(s0)
    800003bc:	4781                	li	a5,0
    800003be:	853e                	mv	a0,a5
    800003c0:	6462                	ld	s0,24(sp)
    800003c2:	6105                	addi	sp,sp,32
    800003c4:	8082                	ret

00000000800003c6 <trap_handler>:
    800003c6:	0ff0000b          	checkcap	255
    800003ca:	715d                	addi	sp,sp,-80
    800003cc:	e486                	sd	ra,72(sp)
    800003ce:	e0a2                	sd	s0,64(sp)
    800003d0:	0880                	addi	s0,sp,80
    800003d2:	faa43c23          	sd	a0,-72(s0)
    800003d6:	fab43823          	sd	a1,-80(s0)
    800003da:	fb843783          	ld	a5,-72(s0)
    800003de:	cb85                	beqz	a5,8000040e <trap_handler+0x48>
    800003e0:	341027f3          	csrr	a5,mepc
    800003e4:	fcf43823          	sd	a5,-48(s0)
    800003e8:	fd043703          	ld	a4,-48(s0)
    800003ec:	343027f3          	csrr	a5,mtval
    800003f0:	fcf43423          	sd	a5,-56(s0)
    800003f4:	fc843783          	ld	a5,-56(s0)
    800003f8:	86be                	mv	a3,a5
    800003fa:	863a                	mv	a2,a4
    800003fc:	fb843583          	ld	a1,-72(s0)
    80000400:	00303517          	auipc	a0,0x303
    80000404:	bc050513          	addi	a0,a0,-1088 # 80302fc0 <cap_matrix+0x2000>
    80000408:	3fc000ef          	jal	ra,80000804 <printf>
    8000040c:	a089                	j	8000044e <trap_handler+0x88>
    8000040e:	00306797          	auipc	a5,0x306
    80000412:	c1278793          	addi	a5,a5,-1006 # 80306020 <mask.1575>
    80000416:	639c                	ld	a5,0(a5)
    80000418:	fb843703          	ld	a4,-72(s0)
    8000041c:	8ff9                	and	a5,a5,a4
    8000041e:	fef43423          	sd	a5,-24(s0)
    80000422:	341027f3          	csrr	a5,mepc
    80000426:	fef43023          	sd	a5,-32(s0)
    8000042a:	fe043703          	ld	a4,-32(s0)
    8000042e:	343027f3          	csrr	a5,mtval
    80000432:	fcf43c23          	sd	a5,-40(s0)
    80000436:	fd843783          	ld	a5,-40(s0)
    8000043a:	86be                	mv	a3,a5
    8000043c:	863a                	mv	a2,a4
    8000043e:	fe843583          	ld	a1,-24(s0)
    80000442:	00303517          	auipc	a0,0x303
    80000446:	bae50513          	addi	a0,a0,-1106 # 80302ff0 <cap_matrix+0x2030>
    8000044a:	3ba000ef          	jal	ra,80000804 <printf>
    8000044e:	33e000ef          	jal	ra,8000078c <htif_poweroff>

0000000080000452 <print_checkcap_all_cond_fail>:
    80000452:	0ff0000b          	checkcap	255
    80000456:	7179                	addi	sp,sp,-48
    80000458:	f406                	sd	ra,40(sp)
    8000045a:	f022                	sd	s0,32(sp)
    8000045c:	1800                	addi	s0,sp,48
    8000045e:	810027f3          	csrr	a5,ucurrcap
    80000462:	fef43423          	sd	a5,-24(s0)
    80000466:	fe843703          	ld	a4,-24(s0)
    8000046a:	811027f3          	csrr	a5,utargetcap
    8000046e:	fef43023          	sd	a5,-32(s0)
    80000472:	fe043603          	ld	a2,-32(s0)
    80000476:	341027f3          	csrr	a5,mepc
    8000047a:	fcf43c23          	sd	a5,-40(s0)
    8000047e:	fd843783          	ld	a5,-40(s0)
    80000482:	86be                	mv	a3,a5
    80000484:	85ba                	mv	a1,a4
    80000486:	00303517          	auipc	a0,0x303
    8000048a:	b9250513          	addi	a0,a0,-1134 # 80303018 <cap_matrix+0x2058>
    8000048e:	376000ef          	jal	ra,80000804 <printf>
    80000492:	2fa000ef          	jal	ra,8000078c <htif_poweroff>

0000000080000496 <print_capability_fail>:
    80000496:	0ff0000b          	checkcap	255
    8000049a:	7179                	addi	sp,sp,-48
    8000049c:	f406                	sd	ra,40(sp)
    8000049e:	f022                	sd	s0,32(sp)
    800004a0:	1800                	addi	s0,sp,48
    800004a2:	810027f3          	csrr	a5,ucurrcap
    800004a6:	fef43423          	sd	a5,-24(s0)
    800004aa:	fe843703          	ld	a4,-24(s0)
    800004ae:	811027f3          	csrr	a5,utargetcap
    800004b2:	fef43023          	sd	a5,-32(s0)
    800004b6:	fe043603          	ld	a2,-32(s0)
    800004ba:	341027f3          	csrr	a5,mepc
    800004be:	fcf43c23          	sd	a5,-40(s0)
    800004c2:	fd843783          	ld	a5,-40(s0)
    800004c6:	86be                	mv	a3,a5
    800004c8:	85ba                	mv	a1,a4
    800004ca:	00303517          	auipc	a0,0x303
    800004ce:	b8e50513          	addi	a0,a0,-1138 # 80303058 <cap_matrix+0x2098>
    800004d2:	332000ef          	jal	ra,80000804 <printf>
    800004d6:	2b6000ef          	jal	ra,8000078c <htif_poweroff>

00000000800004da <boot_primary>:
    800004da:	0010000b          	checkcap	1
    800004de:	7179                	addi	sp,sp,-48
    800004e0:	f406                	sd	ra,40(sp)
    800004e2:	f022                	sd	s0,32(sp)
    800004e4:	1800                	addi	s0,sp,48
    800004e6:	300027f3          	csrr	a5,mstatus
    800004ea:	fef43423          	sd	a5,-24(s0)
    800004ee:	fe843783          	ld	a5,-24(s0)
    800004f2:	fef43023          	sd	a5,-32(s0)
    800004f6:	fe043703          	ld	a4,-32(s0)
    800004fa:	6799                	lui	a5,0x6
    800004fc:	8fd9                	or	a5,a5,a4
    800004fe:	fef43023          	sd	a5,-32(s0)
    80000502:	fe043783          	ld	a5,-32(s0)
    80000506:	0087e793          	ori	a5,a5,8
    8000050a:	fef43023          	sd	a5,-32(s0)
    8000050e:	fe043783          	ld	a5,-32(s0)
    80000512:	30079073          	csrw	mstatus,a5
    80000516:	3043e7f3          	csrrsi	a5,mie,7
    8000051a:	fcf43c23          	sd	a5,-40(s0)
    8000051e:	00306797          	auipc	a5,0x306
    80000522:	b0e78793          	addi	a5,a5,-1266 # 8030602c <__KERNEL_END>
    80000526:	fcf43823          	sd	a5,-48(s0)
    8000052a:	00303517          	auipc	a0,0x303
    8000052e:	b5e50513          	addi	a0,a0,-1186 # 80303088 <cap_matrix+0x20c8>
    80000532:	2d2000ef          	jal	ra,80000804 <printf>
    80000536:	256000ef          	jal	ra,8000078c <htif_poweroff>

000000008000053a <boot_secondary>:
    8000053a:	0800000b          	checkcap	128
    8000053e:	1141                	addi	sp,sp,-16
    80000540:	e406                	sd	ra,8(sp)
    80000542:	e022                	sd	s0,0(sp)
    80000544:	0800                	addi	s0,sp,16
    80000546:	03800693          	li	a3,56
    8000054a:	00303617          	auipc	a2,0x303
    8000054e:	b4e60613          	addi	a2,a2,-1202 # 80303098 <cap_matrix+0x20d8>
    80000552:	00303597          	auipc	a1,0x303
    80000556:	b5658593          	addi	a1,a1,-1194 # 803030a8 <cap_matrix+0x20e8>
    8000055a:	00303517          	auipc	a0,0x303
    8000055e:	b7e50513          	addi	a0,a0,-1154 # 803030d8 <cap_matrix+0x2118>
    80000562:	2a2000ef          	jal	ra,80000804 <printf>
    80000566:	a001                	j	80000566 <boot_secondary+0x2c>

0000000080000568 <__check_fromhost>:
    80000568:	0020000b          	checkcap	2
    8000056c:	1101                	addi	sp,sp,-32
    8000056e:	ec06                	sd	ra,24(sp)
    80000570:	e822                	sd	s0,16(sp)
    80000572:	1000                	addi	s0,sp,32
    80000574:	00304797          	auipc	a5,0x304
    80000578:	a9478793          	addi	a5,a5,-1388 # 80304008 <fromhost>
    8000057c:	639c                	ld	a5,0(a5)
    8000057e:	fef43423          	sd	a5,-24(s0)
    80000582:	fe843783          	ld	a5,-24(s0)
    80000586:	c7d1                	beqz	a5,80000612 <__check_fromhost+0xaa>
    80000588:	00304797          	auipc	a5,0x304
    8000058c:	a8078793          	addi	a5,a5,-1408 # 80304008 <fromhost>
    80000590:	0007b023          	sd	zero,0(a5)
    80000594:	fe843783          	ld	a5,-24(s0)
    80000598:	0387d713          	srli	a4,a5,0x38
    8000059c:	4785                	li	a5,1
    8000059e:	02f70263          	beq	a4,a5,800005c2 <__check_fromhost+0x5a>
    800005a2:	46f5                	li	a3,29
    800005a4:	00303617          	auipc	a2,0x303
    800005a8:	b6460613          	addi	a2,a2,-1180 # 80303108 <cap_matrix+0x2148>
    800005ac:	00303597          	auipc	a1,0x303
    800005b0:	b6458593          	addi	a1,a1,-1180 # 80303110 <cap_matrix+0x2150>
    800005b4:	00303517          	auipc	a0,0x303
    800005b8:	b7450513          	addi	a0,a0,-1164 # 80303128 <cap_matrix+0x2168>
    800005bc:	248000ef          	jal	ra,80000804 <printf>
    800005c0:	a001                	j	800005c0 <__check_fromhost+0x58>
    800005c2:	fe843783          	ld	a5,-24(s0)
    800005c6:	07a2                	slli	a5,a5,0x8
    800005c8:	93e1                	srli	a5,a5,0x38
    800005ca:	c789                	beqz	a5,800005d4 <__check_fromhost+0x6c>
    800005cc:	4705                	li	a4,1
    800005ce:	04e78463          	beq	a5,a4,80000616 <__check_fromhost+0xae>
    800005d2:	a839                	j	800005f0 <__check_fromhost+0x88>
    800005d4:	fe843783          	ld	a5,-24(s0)
    800005d8:	0ff7f793          	andi	a5,a5,255
    800005dc:	2781                	sext.w	a5,a5
    800005de:	2785                	addiw	a5,a5,1
    800005e0:	0007871b          	sext.w	a4,a5
    800005e4:	00306797          	auipc	a5,0x306
    800005e8:	a4478793          	addi	a5,a5,-1468 # 80306028 <htif_console_buf>
    800005ec:	c398                	sw	a4,0(a5)
    800005ee:	a02d                	j	80000618 <__check_fromhost+0xb0>
    800005f0:	02500693          	li	a3,37
    800005f4:	00303617          	auipc	a2,0x303
    800005f8:	b1460613          	addi	a2,a2,-1260 # 80303108 <cap_matrix+0x2148>
    800005fc:	00303597          	auipc	a1,0x303
    80000600:	b5c58593          	addi	a1,a1,-1188 # 80303158 <cap_matrix+0x2198>
    80000604:	00303517          	auipc	a0,0x303
    80000608:	b2450513          	addi	a0,a0,-1244 # 80303128 <cap_matrix+0x2168>
    8000060c:	1f8000ef          	jal	ra,80000804 <printf>
    80000610:	a001                	j	80000610 <__check_fromhost+0xa8>
    80000612:	0001                	nop
    80000614:	a011                	j	80000618 <__check_fromhost+0xb0>
    80000616:	0001                	nop
    80000618:	60e2                	ld	ra,24(sp)
    8000061a:	6442                	ld	s0,16(sp)
    8000061c:	6105                	addi	sp,sp,32
    8000061e:	8082                	ret

0000000080000620 <__set_tohost>:
    80000620:	0020000b          	checkcap	2
    80000624:	7179                	addi	sp,sp,-48
    80000626:	f406                	sd	ra,40(sp)
    80000628:	f022                	sd	s0,32(sp)
    8000062a:	1800                	addi	s0,sp,48
    8000062c:	fea43423          	sd	a0,-24(s0)
    80000630:	feb43023          	sd	a1,-32(s0)
    80000634:	fcc43c23          	sd	a2,-40(s0)
    80000638:	a019                	j	8000063e <__set_tohost+0x1e>
    8000063a:	f2fff0ef          	jal	ra,80000568 <__check_fromhost>
    8000063e:	00304797          	auipc	a5,0x304
    80000642:	9c278793          	addi	a5,a5,-1598 # 80304000 <tohost>
    80000646:	639c                	ld	a5,0(a5)
    80000648:	fbed                	bnez	a5,8000063a <__set_tohost+0x1a>
    8000064a:	fe843783          	ld	a5,-24(s0)
    8000064e:	03879713          	slli	a4,a5,0x38
    80000652:	fe043783          	ld	a5,-32(s0)
    80000656:	17c2                	slli	a5,a5,0x30
    80000658:	8f5d                	or	a4,a4,a5
    8000065a:	fd843783          	ld	a5,-40(s0)
    8000065e:	8f5d                	or	a4,a4,a5
    80000660:	00304797          	auipc	a5,0x304
    80000664:	9a078793          	addi	a5,a5,-1632 # 80304000 <tohost>
    80000668:	e398                	sd	a4,0(a5)
    8000066a:	0001                	nop
    8000066c:	70a2                	ld	ra,40(sp)
    8000066e:	7402                	ld	s0,32(sp)
    80000670:	6145                	addi	sp,sp,48
    80000672:	8082                	ret

0000000080000674 <htif_console_getchar>:
    80000674:	00c0000b          	checkcap	12
    80000678:	1101                	addi	sp,sp,-32
    8000067a:	ec06                	sd	ra,24(sp)
    8000067c:	e822                	sd	s0,16(sp)
    8000067e:	1000                	addi	s0,sp,32
    80000680:	ee9ff0ef          	jal	ra,80000568 <__check_fromhost>
    80000684:	00306797          	auipc	a5,0x306
    80000688:	9a478793          	addi	a5,a5,-1628 # 80306028 <htif_console_buf>
    8000068c:	439c                	lw	a5,0(a5)
    8000068e:	fef42623          	sw	a5,-20(s0)
    80000692:	fec42783          	lw	a5,-20(s0)
    80000696:	2781                	sext.w	a5,a5
    80000698:	0007cd63          	bltz	a5,800006b2 <htif_console_getchar+0x3e>
    8000069c:	00306797          	auipc	a5,0x306
    800006a0:	98c78793          	addi	a5,a5,-1652 # 80306028 <htif_console_buf>
    800006a4:	577d                	li	a4,-1
    800006a6:	c398                	sw	a4,0(a5)
    800006a8:	4601                	li	a2,0
    800006aa:	4581                	li	a1,0
    800006ac:	4505                	li	a0,1
    800006ae:	f73ff0ef          	jal	ra,80000620 <__set_tohost>
    800006b2:	fec42783          	lw	a5,-20(s0)
    800006b6:	37fd                	addiw	a5,a5,-1
    800006b8:	2781                	sext.w	a5,a5
    800006ba:	853e                	mv	a0,a5
    800006bc:	60e2                	ld	ra,24(sp)
    800006be:	6442                	ld	s0,16(sp)
    800006c0:	6105                	addi	sp,sp,32
    800006c2:	8082                	ret

00000000800006c4 <do_tohost_fromhost>:
    800006c4:	0020000b          	checkcap	2
    800006c8:	7139                	addi	sp,sp,-64
    800006ca:	fc06                	sd	ra,56(sp)
    800006cc:	f822                	sd	s0,48(sp)
    800006ce:	0080                	addi	s0,sp,64
    800006d0:	fca43c23          	sd	a0,-40(s0)
    800006d4:	fcb43823          	sd	a1,-48(s0)
    800006d8:	fcc43423          	sd	a2,-56(s0)
    800006dc:	fc843603          	ld	a2,-56(s0)
    800006e0:	fd043583          	ld	a1,-48(s0)
    800006e4:	fd843503          	ld	a0,-40(s0)
    800006e8:	f39ff0ef          	jal	ra,80000620 <__set_tohost>
    800006ec:	00304797          	auipc	a5,0x304
    800006f0:	91c78793          	addi	a5,a5,-1764 # 80304008 <fromhost>
    800006f4:	639c                	ld	a5,0(a5)
    800006f6:	fef43423          	sd	a5,-24(s0)
    800006fa:	fe843783          	ld	a5,-24(s0)
    800006fe:	d7fd                	beqz	a5,800006ec <do_tohost_fromhost+0x28>
    80000700:	fe843783          	ld	a5,-24(s0)
    80000704:	93e1                	srli	a5,a5,0x38
    80000706:	fd843703          	ld	a4,-40(s0)
    8000070a:	02f71163          	bne	a4,a5,8000072c <do_tohost_fromhost+0x68>
    8000070e:	fe843783          	ld	a5,-24(s0)
    80000712:	07a2                	slli	a5,a5,0x8
    80000714:	93e1                	srli	a5,a5,0x38
    80000716:	fd043703          	ld	a4,-48(s0)
    8000071a:	00f71963          	bne	a4,a5,8000072c <do_tohost_fromhost+0x68>
    8000071e:	00304797          	auipc	a5,0x304
    80000722:	8ea78793          	addi	a5,a5,-1814 # 80304008 <fromhost>
    80000726:	0007b023          	sd	zero,0(a5)
    8000072a:	a021                	j	80000732 <do_tohost_fromhost+0x6e>
    8000072c:	e3dff0ef          	jal	ra,80000568 <__check_fromhost>
    80000730:	bf75                	j	800006ec <do_tohost_fromhost+0x28>
    80000732:	0001                	nop
    80000734:	70e2                	ld	ra,56(sp)
    80000736:	7442                	ld	s0,48(sp)
    80000738:	6121                	addi	sp,sp,64
    8000073a:	8082                	ret

000000008000073c <htif_syscall>:
    8000073c:	0080000b          	checkcap	8
    80000740:	1101                	addi	sp,sp,-32
    80000742:	ec06                	sd	ra,24(sp)
    80000744:	e822                	sd	s0,16(sp)
    80000746:	1000                	addi	s0,sp,32
    80000748:	fea43423          	sd	a0,-24(s0)
    8000074c:	fe843603          	ld	a2,-24(s0)
    80000750:	4581                	li	a1,0
    80000752:	4501                	li	a0,0
    80000754:	f71ff0ef          	jal	ra,800006c4 <do_tohost_fromhost>
    80000758:	0001                	nop
    8000075a:	60e2                	ld	ra,24(sp)
    8000075c:	6442                	ld	s0,16(sp)
    8000075e:	6105                	addi	sp,sp,32
    80000760:	8082                	ret

0000000080000762 <htif_console_putchar>:
    80000762:	0020000b          	checkcap	2
    80000766:	1101                	addi	sp,sp,-32
    80000768:	ec06                	sd	ra,24(sp)
    8000076a:	e822                	sd	s0,16(sp)
    8000076c:	1000                	addi	s0,sp,32
    8000076e:	87aa                	mv	a5,a0
    80000770:	fef407a3          	sb	a5,-17(s0)
    80000774:	fef44783          	lbu	a5,-17(s0)
    80000778:	863e                	mv	a2,a5
    8000077a:	4585                	li	a1,1
    8000077c:	4505                	li	a0,1
    8000077e:	ea3ff0ef          	jal	ra,80000620 <__set_tohost>
    80000782:	0001                	nop
    80000784:	60e2                	ld	ra,24(sp)
    80000786:	6442                	ld	s0,16(sp)
    80000788:	6105                	addi	sp,sp,32
    8000078a:	8082                	ret

000000008000078c <htif_poweroff>:
    8000078c:	0ff0000b          	checkcap	255
    80000790:	1141                	addi	sp,sp,-16
    80000792:	e422                	sd	s0,8(sp)
    80000794:	0800                	addi	s0,sp,16
    80000796:	00304797          	auipc	a5,0x304
    8000079a:	87278793          	addi	a5,a5,-1934 # 80304008 <fromhost>
    8000079e:	0007b023          	sd	zero,0(a5)
    800007a2:	00304797          	auipc	a5,0x304
    800007a6:	85e78793          	addi	a5,a5,-1954 # 80304000 <tohost>
    800007aa:	4705                	li	a4,1
    800007ac:	e398                	sd	a4,0(a5)
    800007ae:	b7e5                	j	80000796 <htif_poweroff+0xa>

00000000800007b0 <vprintf>:
    800007b0:	0020000b          	checkcap	2
    800007b4:	7169                	addi	sp,sp,-304
    800007b6:	f606                	sd	ra,296(sp)
    800007b8:	f222                	sd	s0,288(sp)
    800007ba:	1a00                	addi	s0,sp,304
    800007bc:	eca43c23          	sd	a0,-296(s0)
    800007c0:	ecb43823          	sd	a1,-304(s0)
    800007c4:	ee840793          	addi	a5,s0,-280
    800007c8:	ed043683          	ld	a3,-304(s0)
    800007cc:	ed843603          	ld	a2,-296(s0)
    800007d0:	10000593          	li	a1,256
    800007d4:	853e                	mv	a0,a5
    800007d6:	316000ef          	jal	ra,80000aec <vsnprintf>
    800007da:	ee840793          	addi	a5,s0,-280
    800007de:	853e                	mv	a0,a5
    800007e0:	1ae000ef          	jal	ra,8000098e <strlen>
    800007e4:	87aa                	mv	a5,a0
    800007e6:	fef42623          	sw	a5,-20(s0)
    800007ea:	fec42703          	lw	a4,-20(s0)
    800007ee:	ee840793          	addi	a5,s0,-280
    800007f2:	85ba                	mv	a1,a4
    800007f4:	853e                	mv	a0,a5
    800007f6:	05c000ef          	jal	ra,80000852 <putstring>
    800007fa:	0001                	nop
    800007fc:	70b2                	ld	ra,296(sp)
    800007fe:	7412                	ld	s0,288(sp)
    80000800:	6155                	addi	sp,sp,304
    80000802:	8082                	ret

0000000080000804 <printf>:
    80000804:	0020000b          	checkcap	2
    80000808:	7159                	addi	sp,sp,-112
    8000080a:	f406                	sd	ra,40(sp)
    8000080c:	f022                	sd	s0,32(sp)
    8000080e:	1800                	addi	s0,sp,48
    80000810:	fca43c23          	sd	a0,-40(s0)
    80000814:	e40c                	sd	a1,8(s0)
    80000816:	e810                	sd	a2,16(s0)
    80000818:	ec14                	sd	a3,24(s0)
    8000081a:	f018                	sd	a4,32(s0)
    8000081c:	f41c                	sd	a5,40(s0)
    8000081e:	03043823          	sd	a6,48(s0)
    80000822:	03143c23          	sd	a7,56(s0)
    80000826:	04040793          	addi	a5,s0,64
    8000082a:	fcf43823          	sd	a5,-48(s0)
    8000082e:	fd043783          	ld	a5,-48(s0)
    80000832:	fc878793          	addi	a5,a5,-56
    80000836:	fef43423          	sd	a5,-24(s0)
    8000083a:	fe843783          	ld	a5,-24(s0)
    8000083e:	85be                	mv	a1,a5
    80000840:	fd843503          	ld	a0,-40(s0)
    80000844:	f6dff0ef          	jal	ra,800007b0 <vprintf>
    80000848:	0001                	nop
    8000084a:	70a2                	ld	ra,40(sp)
    8000084c:	7402                	ld	s0,32(sp)
    8000084e:	6165                	addi	sp,sp,112
    80000850:	8082                	ret

0000000080000852 <putstring>:
    80000852:	0020000b          	checkcap	2
    80000856:	7179                	addi	sp,sp,-48
    80000858:	f406                	sd	ra,40(sp)
    8000085a:	f022                	sd	s0,32(sp)
    8000085c:	1800                	addi	s0,sp,48
    8000085e:	fca43c23          	sd	a0,-40(s0)
    80000862:	87ae                	mv	a5,a1
    80000864:	fcf42a23          	sw	a5,-44(s0)
    80000868:	fe042623          	sw	zero,-20(s0)
    8000086c:	a005                	j	8000088c <putstring+0x3a>
    8000086e:	fec46783          	lwu	a5,-20(s0)
    80000872:	fd843703          	ld	a4,-40(s0)
    80000876:	97ba                	add	a5,a5,a4
    80000878:	0007c783          	lbu	a5,0(a5)
    8000087c:	853e                	mv	a0,a5
    8000087e:	ee5ff0ef          	jal	ra,80000762 <htif_console_putchar>
    80000882:	fec42783          	lw	a5,-20(s0)
    80000886:	2785                	addiw	a5,a5,1
    80000888:	fef42623          	sw	a5,-20(s0)
    8000088c:	fec42703          	lw	a4,-20(s0)
    80000890:	fd442783          	lw	a5,-44(s0)
    80000894:	2701                	sext.w	a4,a4
    80000896:	2781                	sext.w	a5,a5
    80000898:	fcf76be3          	bltu	a4,a5,8000086e <putstring+0x1c>
    8000089c:	0001                	nop
    8000089e:	0001                	nop
    800008a0:	70a2                	ld	ra,40(sp)
    800008a2:	7402                	ld	s0,32(sp)
    800008a4:	6145                	addi	sp,sp,48
    800008a6:	8082                	ret

00000000800008a8 <strcmp>:
    800008a8:	0fe0000b          	checkcap	254
    800008ac:	7179                	addi	sp,sp,-48
    800008ae:	f422                	sd	s0,40(sp)
    800008b0:	1800                	addi	s0,sp,48
    800008b2:	fca43c23          	sd	a0,-40(s0)
    800008b6:	fcb43823          	sd	a1,-48(s0)
    800008ba:	fe042623          	sw	zero,-20(s0)
    800008be:	fec42783          	lw	a5,-20(s0)
    800008c2:	fd843703          	ld	a4,-40(s0)
    800008c6:	97ba                	add	a5,a5,a4
    800008c8:	0007c683          	lbu	a3,0(a5)
    800008cc:	fec42783          	lw	a5,-20(s0)
    800008d0:	fd043703          	ld	a4,-48(s0)
    800008d4:	97ba                	add	a5,a5,a4
    800008d6:	0007c783          	lbu	a5,0(a5)
    800008da:	8736                	mv	a4,a3
    800008dc:	02f70763          	beq	a4,a5,8000090a <strcmp+0x62>
    800008e0:	fec42783          	lw	a5,-20(s0)
    800008e4:	fd843703          	ld	a4,-40(s0)
    800008e8:	97ba                	add	a5,a5,a4
    800008ea:	0007c683          	lbu	a3,0(a5)
    800008ee:	fec42783          	lw	a5,-20(s0)
    800008f2:	fd043703          	ld	a4,-48(s0)
    800008f6:	97ba                	add	a5,a5,a4
    800008f8:	0007c783          	lbu	a5,0(a5)
    800008fc:	8736                	mv	a4,a3
    800008fe:	00f77463          	bgeu	a4,a5,80000906 <strcmp+0x5e>
    80000902:	57fd                	li	a5,-1
    80000904:	a01d                	j	8000092a <strcmp+0x82>
    80000906:	4785                	li	a5,1
    80000908:	a00d                	j	8000092a <strcmp+0x82>
    8000090a:	fec42783          	lw	a5,-20(s0)
    8000090e:	fd843703          	ld	a4,-40(s0)
    80000912:	97ba                	add	a5,a5,a4
    80000914:	0007c783          	lbu	a5,0(a5)
    80000918:	e399                	bnez	a5,8000091e <strcmp+0x76>
    8000091a:	4781                	li	a5,0
    8000091c:	a039                	j	8000092a <strcmp+0x82>
    8000091e:	fec42783          	lw	a5,-20(s0)
    80000922:	2785                	addiw	a5,a5,1
    80000924:	fef42623          	sw	a5,-20(s0)
    80000928:	bf59                	j	800008be <strcmp+0x16>
    8000092a:	853e                	mv	a0,a5
    8000092c:	7422                	ld	s0,40(sp)
    8000092e:	6145                	addi	sp,sp,48
    80000930:	8082                	ret

0000000080000932 <strcpy>:
    80000932:	0fe0000b          	checkcap	254
    80000936:	7179                	addi	sp,sp,-48
    80000938:	f422                	sd	s0,40(sp)
    8000093a:	1800                	addi	s0,sp,48
    8000093c:	fca43c23          	sd	a0,-40(s0)
    80000940:	fcb43823          	sd	a1,-48(s0)
    80000944:	fe042623          	sw	zero,-20(s0)
    80000948:	fec42783          	lw	a5,-20(s0)
    8000094c:	fd043703          	ld	a4,-48(s0)
    80000950:	973e                	add	a4,a4,a5
    80000952:	fec42783          	lw	a5,-20(s0)
    80000956:	fd843683          	ld	a3,-40(s0)
    8000095a:	97b6                	add	a5,a5,a3
    8000095c:	00074703          	lbu	a4,0(a4)
    80000960:	00e78023          	sb	a4,0(a5)
    80000964:	fec42783          	lw	a5,-20(s0)
    80000968:	fd043703          	ld	a4,-48(s0)
    8000096c:	97ba                	add	a5,a5,a4
    8000096e:	0007c783          	lbu	a5,0(a5)
    80000972:	e781                	bnez	a5,8000097a <strcpy+0x48>
    80000974:	fd843783          	ld	a5,-40(s0)
    80000978:	a039                	j	80000986 <strcpy+0x54>
    8000097a:	fec42783          	lw	a5,-20(s0)
    8000097e:	2785                	addiw	a5,a5,1
    80000980:	fef42623          	sw	a5,-20(s0)
    80000984:	b7d1                	j	80000948 <strcpy+0x16>
    80000986:	853e                	mv	a0,a5
    80000988:	7422                	ld	s0,40(sp)
    8000098a:	6145                	addi	sp,sp,48
    8000098c:	8082                	ret

000000008000098e <strlen>:
    8000098e:	0fe0000b          	checkcap	254
    80000992:	7179                	addi	sp,sp,-48
    80000994:	f422                	sd	s0,40(sp)
    80000996:	1800                	addi	s0,sp,48
    80000998:	fca43c23          	sd	a0,-40(s0)
    8000099c:	fe042623          	sw	zero,-20(s0)
    800009a0:	a819                	j	800009b6 <strlen+0x28>
    800009a2:	fd843783          	ld	a5,-40(s0)
    800009a6:	0785                	addi	a5,a5,1
    800009a8:	fcf43c23          	sd	a5,-40(s0)
    800009ac:	fec42783          	lw	a5,-20(s0)
    800009b0:	2785                	addiw	a5,a5,1
    800009b2:	fef42623          	sw	a5,-20(s0)
    800009b6:	fd843783          	ld	a5,-40(s0)
    800009ba:	0007c783          	lbu	a5,0(a5)
    800009be:	f3f5                	bnez	a5,800009a2 <strlen+0x14>
    800009c0:	fec42783          	lw	a5,-20(s0)
    800009c4:	853e                	mv	a0,a5
    800009c6:	7422                	ld	s0,40(sp)
    800009c8:	6145                	addi	sp,sp,48
    800009ca:	8082                	ret

00000000800009cc <isstring>:
    800009cc:	0fe0000b          	checkcap	254
    800009d0:	1101                	addi	sp,sp,-32
    800009d2:	ec22                	sd	s0,24(sp)
    800009d4:	1000                	addi	s0,sp,32
    800009d6:	87aa                	mv	a5,a0
    800009d8:	fef407a3          	sb	a5,-17(s0)
    800009dc:	fef44783          	lbu	a5,-17(s0)
    800009e0:	0ff7f713          	andi	a4,a5,255
    800009e4:	04000793          	li	a5,64
    800009e8:	00e7fc63          	bgeu	a5,a4,80000a00 <isstring+0x34>
    800009ec:	fef44783          	lbu	a5,-17(s0)
    800009f0:	0ff7f713          	andi	a4,a5,255
    800009f4:	05a00793          	li	a5,90
    800009f8:	00e7e463          	bltu	a5,a4,80000a00 <isstring+0x34>
    800009fc:	4785                	li	a5,1
    800009fe:	a069                	j	80000a88 <isstring+0xbc>
    80000a00:	fef44783          	lbu	a5,-17(s0)
    80000a04:	0ff7f713          	andi	a4,a5,255
    80000a08:	06000793          	li	a5,96
    80000a0c:	00e7fc63          	bgeu	a5,a4,80000a24 <isstring+0x58>
    80000a10:	fef44783          	lbu	a5,-17(s0)
    80000a14:	0ff7f713          	andi	a4,a5,255
    80000a18:	07a00793          	li	a5,122
    80000a1c:	00e7e463          	bltu	a5,a4,80000a24 <isstring+0x58>
    80000a20:	4785                	li	a5,1
    80000a22:	a09d                	j	80000a88 <isstring+0xbc>
    80000a24:	fef44783          	lbu	a5,-17(s0)
    80000a28:	0ff7f713          	andi	a4,a5,255
    80000a2c:	02f00793          	li	a5,47
    80000a30:	00e7fc63          	bgeu	a5,a4,80000a48 <isstring+0x7c>
    80000a34:	fef44783          	lbu	a5,-17(s0)
    80000a38:	0ff7f713          	andi	a4,a5,255
    80000a3c:	03900793          	li	a5,57
    80000a40:	00e7e463          	bltu	a5,a4,80000a48 <isstring+0x7c>
    80000a44:	4785                	li	a5,1
    80000a46:	a089                	j	80000a88 <isstring+0xbc>
    80000a48:	fef44783          	lbu	a5,-17(s0)
    80000a4c:	0ff7f793          	andi	a5,a5,255
    80000a50:	cb8d                	beqz	a5,80000a82 <isstring+0xb6>
    80000a52:	fef44783          	lbu	a5,-17(s0)
    80000a56:	0ff7f713          	andi	a4,a5,255
    80000a5a:	02000793          	li	a5,32
    80000a5e:	02f70263          	beq	a4,a5,80000a82 <isstring+0xb6>
    80000a62:	fef44783          	lbu	a5,-17(s0)
    80000a66:	0ff7f713          	andi	a4,a5,255
    80000a6a:	02c00793          	li	a5,44
    80000a6e:	00f70a63          	beq	a4,a5,80000a82 <isstring+0xb6>
    80000a72:	fef44783          	lbu	a5,-17(s0)
    80000a76:	0ff7f713          	andi	a4,a5,255
    80000a7a:	02d00793          	li	a5,45
    80000a7e:	00f71463          	bne	a4,a5,80000a86 <isstring+0xba>
    80000a82:	4785                	li	a5,1
    80000a84:	a011                	j	80000a88 <isstring+0xbc>
    80000a86:	4781                	li	a5,0
    80000a88:	853e                	mv	a0,a5
    80000a8a:	6462                	ld	s0,24(sp)
    80000a8c:	6105                	addi	sp,sp,32
    80000a8e:	8082                	ret

0000000080000a90 <memset>:
    80000a90:	0fe0000b          	checkcap	254
    80000a94:	7179                	addi	sp,sp,-48
    80000a96:	f422                	sd	s0,40(sp)
    80000a98:	1800                	addi	s0,sp,48
    80000a9a:	fca43c23          	sd	a0,-40(s0)
    80000a9e:	87ae                	mv	a5,a1
    80000aa0:	8732                	mv	a4,a2
    80000aa2:	fcf42a23          	sw	a5,-44(s0)
    80000aa6:	87ba                	mv	a5,a4
    80000aa8:	fcf42823          	sw	a5,-48(s0)
    80000aac:	fe042623          	sw	zero,-20(s0)
    80000ab0:	a00d                	j	80000ad2 <memset+0x42>
    80000ab2:	fec46783          	lwu	a5,-20(s0)
    80000ab6:	fd843703          	ld	a4,-40(s0)
    80000aba:	97ba                	add	a5,a5,a4
    80000abc:	fd442703          	lw	a4,-44(s0)
    80000ac0:	0ff77713          	andi	a4,a4,255
    80000ac4:	00e78023          	sb	a4,0(a5)
    80000ac8:	fec42783          	lw	a5,-20(s0)
    80000acc:	2785                	addiw	a5,a5,1
    80000ace:	fef42623          	sw	a5,-20(s0)
    80000ad2:	fec42703          	lw	a4,-20(s0)
    80000ad6:	fd042783          	lw	a5,-48(s0)
    80000ada:	2701                	sext.w	a4,a4
    80000adc:	2781                	sext.w	a5,a5
    80000ade:	fcf76ae3          	bltu	a4,a5,80000ab2 <memset+0x22>
    80000ae2:	0001                	nop
    80000ae4:	0001                	nop
    80000ae6:	7422                	ld	s0,40(sp)
    80000ae8:	6145                	addi	sp,sp,48
    80000aea:	8082                	ret

0000000080000aec <vsnprintf>:
    80000aec:	0fe0000b          	checkcap	254
    80000af0:	7119                	addi	sp,sp,-128
    80000af2:	fca2                	sd	s0,120(sp)
    80000af4:	0100                	addi	s0,sp,128
    80000af6:	f8a43c23          	sd	a0,-104(s0)
    80000afa:	87ae                	mv	a5,a1
    80000afc:	f8c43423          	sd	a2,-120(s0)
    80000b00:	f8d43023          	sd	a3,-128(s0)
    80000b04:	f8f42a23          	sw	a5,-108(s0)
    80000b08:	fe0407a3          	sb	zero,-17(s0)
    80000b0c:	fe040723          	sb	zero,-18(s0)
    80000b10:	fe042423          	sw	zero,-24(s0)
    80000b14:	a6f5                	j	80000f00 <vsnprintf+0x414>
    80000b16:	fef44783          	lbu	a5,-17(s0)
    80000b1a:	0ff7f793          	andi	a5,a5,255
    80000b1e:	38078163          	beqz	a5,80000ea0 <vsnprintf+0x3b4>
    80000b22:	f8843783          	ld	a5,-120(s0)
    80000b26:	0007c783          	lbu	a5,0(a5)
    80000b2a:	2781                	sext.w	a5,a5
    80000b2c:	f9d7869b          	addiw	a3,a5,-99
    80000b30:	0006871b          	sext.w	a4,a3
    80000b34:	47d5                	li	a5,21
    80000b36:	3ae7ef63          	bltu	a5,a4,80000ef4 <vsnprintf+0x408>
    80000b3a:	02069793          	slli	a5,a3,0x20
    80000b3e:	9381                	srli	a5,a5,0x20
    80000b40:	00279713          	slli	a4,a5,0x2
    80000b44:	00302797          	auipc	a5,0x302
    80000b48:	61878793          	addi	a5,a5,1560 # 8030315c <cap_matrix+0x219c>
    80000b4c:	97ba                	add	a5,a5,a4
    80000b4e:	439c                	lw	a5,0(a5)
    80000b50:	0007871b          	sext.w	a4,a5
    80000b54:	00302797          	auipc	a5,0x302
    80000b58:	60878793          	addi	a5,a5,1544 # 8030315c <cap_matrix+0x219c>
    80000b5c:	97ba                	add	a5,a5,a4
    80000b5e:	8782                	jr	a5
    80000b60:	4785                	li	a5,1
    80000b62:	fef40723          	sb	a5,-18(s0)
    80000b66:	ae41                	j	80000ef6 <vsnprintf+0x40a>
    80000b68:	4785                	li	a5,1
    80000b6a:	fef40723          	sb	a5,-18(s0)
    80000b6e:	fe842783          	lw	a5,-24(s0)
    80000b72:	2785                	addiw	a5,a5,1
    80000b74:	fef42423          	sw	a5,-24(s0)
    80000b78:	fe842703          	lw	a4,-24(s0)
    80000b7c:	f9442783          	lw	a5,-108(s0)
    80000b80:	2701                	sext.w	a4,a4
    80000b82:	2781                	sext.w	a5,a5
    80000b84:	00f77f63          	bgeu	a4,a5,80000ba2 <vsnprintf+0xb6>
    80000b88:	fe842783          	lw	a5,-24(s0)
    80000b8c:	37fd                	addiw	a5,a5,-1
    80000b8e:	2781                	sext.w	a5,a5
    80000b90:	1782                	slli	a5,a5,0x20
    80000b92:	9381                	srli	a5,a5,0x20
    80000b94:	f9843703          	ld	a4,-104(s0)
    80000b98:	97ba                	add	a5,a5,a4
    80000b9a:	03000713          	li	a4,48
    80000b9e:	00e78023          	sb	a4,0(a5)
    80000ba2:	fe842783          	lw	a5,-24(s0)
    80000ba6:	2785                	addiw	a5,a5,1
    80000ba8:	fef42423          	sw	a5,-24(s0)
    80000bac:	fe842703          	lw	a4,-24(s0)
    80000bb0:	f9442783          	lw	a5,-108(s0)
    80000bb4:	2701                	sext.w	a4,a4
    80000bb6:	2781                	sext.w	a5,a5
    80000bb8:	00f77f63          	bgeu	a4,a5,80000bd6 <vsnprintf+0xea>
    80000bbc:	fe842783          	lw	a5,-24(s0)
    80000bc0:	37fd                	addiw	a5,a5,-1
    80000bc2:	2781                	sext.w	a5,a5
    80000bc4:	1782                	slli	a5,a5,0x20
    80000bc6:	9381                	srli	a5,a5,0x20
    80000bc8:	f9843703          	ld	a4,-104(s0)
    80000bcc:	97ba                	add	a5,a5,a4
    80000bce:	07800713          	li	a4,120
    80000bd2:	00e78023          	sb	a4,0(a5)
    80000bd6:	fee44783          	lbu	a5,-18(s0)
    80000bda:	0ff7f793          	andi	a5,a5,255
    80000bde:	cb89                	beqz	a5,80000bf0 <vsnprintf+0x104>
    80000be0:	f8043783          	ld	a5,-128(s0)
    80000be4:	00878713          	addi	a4,a5,8
    80000be8:	f8e43023          	sd	a4,-128(s0)
    80000bec:	639c                	ld	a5,0(a5)
    80000bee:	a801                	j	80000bfe <vsnprintf+0x112>
    80000bf0:	f8043783          	ld	a5,-128(s0)
    80000bf4:	00878713          	addi	a4,a5,8
    80000bf8:	f8e43023          	sd	a4,-128(s0)
    80000bfc:	439c                	lw	a5,0(a5)
    80000bfe:	faf43823          	sd	a5,-80(s0)
    80000c02:	fee44783          	lbu	a5,-18(s0)
    80000c06:	0ff7f793          	andi	a5,a5,255
    80000c0a:	c399                	beqz	a5,80000c10 <vsnprintf+0x124>
    80000c0c:	47bd                	li	a5,15
    80000c0e:	a011                	j	80000c12 <vsnprintf+0x126>
    80000c10:	479d                	li	a5,7
    80000c12:	fef42223          	sw	a5,-28(s0)
    80000c16:	a059                	j	80000c9c <vsnprintf+0x1b0>
    80000c18:	fe442783          	lw	a5,-28(s0)
    80000c1c:	0027979b          	slliw	a5,a5,0x2
    80000c20:	2781                	sext.w	a5,a5
    80000c22:	fb043703          	ld	a4,-80(s0)
    80000c26:	40f757b3          	sra	a5,a4,a5
    80000c2a:	2781                	sext.w	a5,a5
    80000c2c:	8bbd                	andi	a5,a5,15
    80000c2e:	faf42623          	sw	a5,-84(s0)
    80000c32:	fe842783          	lw	a5,-24(s0)
    80000c36:	2785                	addiw	a5,a5,1
    80000c38:	fef42423          	sw	a5,-24(s0)
    80000c3c:	fe842703          	lw	a4,-24(s0)
    80000c40:	f9442783          	lw	a5,-108(s0)
    80000c44:	2701                	sext.w	a4,a4
    80000c46:	2781                	sext.w	a5,a5
    80000c48:	04f77563          	bgeu	a4,a5,80000c92 <vsnprintf+0x1a6>
    80000c4c:	fac42783          	lw	a5,-84(s0)
    80000c50:	0007871b          	sext.w	a4,a5
    80000c54:	47a5                	li	a5,9
    80000c56:	00e7cb63          	blt	a5,a4,80000c6c <vsnprintf+0x180>
    80000c5a:	fac42783          	lw	a5,-84(s0)
    80000c5e:	0ff7f793          	andi	a5,a5,255
    80000c62:	0307879b          	addiw	a5,a5,48
    80000c66:	0ff7f793          	andi	a5,a5,255
    80000c6a:	a809                	j	80000c7c <vsnprintf+0x190>
    80000c6c:	fac42783          	lw	a5,-84(s0)
    80000c70:	0ff7f793          	andi	a5,a5,255
    80000c74:	0577879b          	addiw	a5,a5,87
    80000c78:	0ff7f793          	andi	a5,a5,255
    80000c7c:	fe842703          	lw	a4,-24(s0)
    80000c80:	377d                	addiw	a4,a4,-1
    80000c82:	2701                	sext.w	a4,a4
    80000c84:	1702                	slli	a4,a4,0x20
    80000c86:	9301                	srli	a4,a4,0x20
    80000c88:	f9843683          	ld	a3,-104(s0)
    80000c8c:	9736                	add	a4,a4,a3
    80000c8e:	00f70023          	sb	a5,0(a4)
    80000c92:	fe442783          	lw	a5,-28(s0)
    80000c96:	37fd                	addiw	a5,a5,-1
    80000c98:	fef42223          	sw	a5,-28(s0)
    80000c9c:	fe442783          	lw	a5,-28(s0)
    80000ca0:	2781                	sext.w	a5,a5
    80000ca2:	f607dbe3          	bgez	a5,80000c18 <vsnprintf+0x12c>
    80000ca6:	fe040723          	sb	zero,-18(s0)
    80000caa:	fe0407a3          	sb	zero,-17(s0)
    80000cae:	a4a1                	j	80000ef6 <vsnprintf+0x40a>
    80000cb0:	fee44783          	lbu	a5,-18(s0)
    80000cb4:	0ff7f793          	andi	a5,a5,255
    80000cb8:	cb89                	beqz	a5,80000cca <vsnprintf+0x1de>
    80000cba:	f8043783          	ld	a5,-128(s0)
    80000cbe:	00878713          	addi	a4,a5,8
    80000cc2:	f8e43023          	sd	a4,-128(s0)
    80000cc6:	639c                	ld	a5,0(a5)
    80000cc8:	a801                	j	80000cd8 <vsnprintf+0x1ec>
    80000cca:	f8043783          	ld	a5,-128(s0)
    80000cce:	00878713          	addi	a4,a5,8
    80000cd2:	f8e43023          	sd	a4,-128(s0)
    80000cd6:	439c                	lw	a5,0(a5)
    80000cd8:	fcf43c23          	sd	a5,-40(s0)
    80000cdc:	fd843783          	ld	a5,-40(s0)
    80000ce0:	0407d263          	bgez	a5,80000d24 <vsnprintf+0x238>
    80000ce4:	fd843783          	ld	a5,-40(s0)
    80000ce8:	40f007b3          	neg	a5,a5
    80000cec:	fcf43c23          	sd	a5,-40(s0)
    80000cf0:	fe842783          	lw	a5,-24(s0)
    80000cf4:	2785                	addiw	a5,a5,1
    80000cf6:	fef42423          	sw	a5,-24(s0)
    80000cfa:	fe842703          	lw	a4,-24(s0)
    80000cfe:	f9442783          	lw	a5,-108(s0)
    80000d02:	2701                	sext.w	a4,a4
    80000d04:	2781                	sext.w	a5,a5
    80000d06:	00f77f63          	bgeu	a4,a5,80000d24 <vsnprintf+0x238>
    80000d0a:	fe842783          	lw	a5,-24(s0)
    80000d0e:	37fd                	addiw	a5,a5,-1
    80000d10:	2781                	sext.w	a5,a5
    80000d12:	1782                	slli	a5,a5,0x20
    80000d14:	9381                	srli	a5,a5,0x20
    80000d16:	f9843703          	ld	a4,-104(s0)
    80000d1a:	97ba                	add	a5,a5,a4
    80000d1c:	02d00713          	li	a4,45
    80000d20:	00e78023          	sb	a4,0(a5)
    80000d24:	4785                	li	a5,1
    80000d26:	fcf43823          	sd	a5,-48(s0)
    80000d2a:	fd843783          	ld	a5,-40(s0)
    80000d2e:	fcf43423          	sd	a5,-56(s0)
    80000d32:	a031                	j	80000d3e <vsnprintf+0x252>
    80000d34:	fd043783          	ld	a5,-48(s0)
    80000d38:	0785                	addi	a5,a5,1
    80000d3a:	fcf43823          	sd	a5,-48(s0)
    80000d3e:	fc843703          	ld	a4,-56(s0)
    80000d42:	47a9                	li	a5,10
    80000d44:	02f747b3          	div	a5,a4,a5
    80000d48:	fcf43423          	sd	a5,-56(s0)
    80000d4c:	fc843783          	ld	a5,-56(s0)
    80000d50:	f3f5                	bnez	a5,80000d34 <vsnprintf+0x248>
    80000d52:	fd043783          	ld	a5,-48(s0)
    80000d56:	2781                	sext.w	a5,a5
    80000d58:	37fd                	addiw	a5,a5,-1
    80000d5a:	2781                	sext.w	a5,a5
    80000d5c:	fcf42223          	sw	a5,-60(s0)
    80000d60:	a09d                	j	80000dc6 <vsnprintf+0x2da>
    80000d62:	fc442783          	lw	a5,-60(s0)
    80000d66:	fe842703          	lw	a4,-24(s0)
    80000d6a:	9fb9                	addw	a5,a5,a4
    80000d6c:	2781                	sext.w	a5,a5
    80000d6e:	2785                	addiw	a5,a5,1
    80000d70:	0007871b          	sext.w	a4,a5
    80000d74:	f9442783          	lw	a5,-108(s0)
    80000d78:	2781                	sext.w	a5,a5
    80000d7a:	02f77a63          	bgeu	a4,a5,80000dae <vsnprintf+0x2c2>
    80000d7e:	fd843703          	ld	a4,-40(s0)
    80000d82:	47a9                	li	a5,10
    80000d84:	02f767b3          	rem	a5,a4,a5
    80000d88:	0ff7f713          	andi	a4,a5,255
    80000d8c:	fc442783          	lw	a5,-60(s0)
    80000d90:	fe842683          	lw	a3,-24(s0)
    80000d94:	9fb5                	addw	a5,a5,a3
    80000d96:	2781                	sext.w	a5,a5
    80000d98:	1782                	slli	a5,a5,0x20
    80000d9a:	9381                	srli	a5,a5,0x20
    80000d9c:	f9843683          	ld	a3,-104(s0)
    80000da0:	97b6                	add	a5,a5,a3
    80000da2:	0307071b          	addiw	a4,a4,48
    80000da6:	0ff77713          	andi	a4,a4,255
    80000daa:	00e78023          	sb	a4,0(a5)
    80000dae:	fd843703          	ld	a4,-40(s0)
    80000db2:	47a9                	li	a5,10
    80000db4:	02f747b3          	div	a5,a4,a5
    80000db8:	fcf43c23          	sd	a5,-40(s0)
    80000dbc:	fc442783          	lw	a5,-60(s0)
    80000dc0:	37fd                	addiw	a5,a5,-1
    80000dc2:	fcf42223          	sw	a5,-60(s0)
    80000dc6:	fc442783          	lw	a5,-60(s0)
    80000dca:	2781                	sext.w	a5,a5
    80000dcc:	f807dbe3          	bgez	a5,80000d62 <vsnprintf+0x276>
    80000dd0:	fd043783          	ld	a5,-48(s0)
    80000dd4:	2781                	sext.w	a5,a5
    80000dd6:	fe842703          	lw	a4,-24(s0)
    80000dda:	9fb9                	addw	a5,a5,a4
    80000ddc:	fef42423          	sw	a5,-24(s0)
    80000de0:	fe040723          	sb	zero,-18(s0)
    80000de4:	fe0407a3          	sb	zero,-17(s0)
    80000de8:	a239                	j	80000ef6 <vsnprintf+0x40a>
    80000dea:	f8043783          	ld	a5,-128(s0)
    80000dee:	00878713          	addi	a4,a5,8
    80000df2:	f8e43023          	sd	a4,-128(s0)
    80000df6:	639c                	ld	a5,0(a5)
    80000df8:	faf43c23          	sd	a5,-72(s0)
    80000dfc:	a091                	j	80000e40 <vsnprintf+0x354>
    80000dfe:	fe842783          	lw	a5,-24(s0)
    80000e02:	2785                	addiw	a5,a5,1
    80000e04:	fef42423          	sw	a5,-24(s0)
    80000e08:	fe842703          	lw	a4,-24(s0)
    80000e0c:	f9442783          	lw	a5,-108(s0)
    80000e10:	2701                	sext.w	a4,a4
    80000e12:	2781                	sext.w	a5,a5
    80000e14:	02f77163          	bgeu	a4,a5,80000e36 <vsnprintf+0x34a>
    80000e18:	fe842783          	lw	a5,-24(s0)
    80000e1c:	37fd                	addiw	a5,a5,-1
    80000e1e:	2781                	sext.w	a5,a5
    80000e20:	1782                	slli	a5,a5,0x20
    80000e22:	9381                	srli	a5,a5,0x20
    80000e24:	f9843703          	ld	a4,-104(s0)
    80000e28:	97ba                	add	a5,a5,a4
    80000e2a:	fb843703          	ld	a4,-72(s0)
    80000e2e:	00074703          	lbu	a4,0(a4)
    80000e32:	00e78023          	sb	a4,0(a5)
    80000e36:	fb843783          	ld	a5,-72(s0)
    80000e3a:	0785                	addi	a5,a5,1
    80000e3c:	faf43c23          	sd	a5,-72(s0)
    80000e40:	fb843783          	ld	a5,-72(s0)
    80000e44:	0007c783          	lbu	a5,0(a5)
    80000e48:	fbdd                	bnez	a5,80000dfe <vsnprintf+0x312>
    80000e4a:	fe040723          	sb	zero,-18(s0)
    80000e4e:	fe0407a3          	sb	zero,-17(s0)
    80000e52:	a055                	j	80000ef6 <vsnprintf+0x40a>
    80000e54:	fe842783          	lw	a5,-24(s0)
    80000e58:	2785                	addiw	a5,a5,1
    80000e5a:	fef42423          	sw	a5,-24(s0)
    80000e5e:	fe842703          	lw	a4,-24(s0)
    80000e62:	f9442783          	lw	a5,-108(s0)
    80000e66:	2701                	sext.w	a4,a4
    80000e68:	2781                	sext.w	a5,a5
    80000e6a:	02f77663          	bgeu	a4,a5,80000e96 <vsnprintf+0x3aa>
    80000e6e:	f8043783          	ld	a5,-128(s0)
    80000e72:	00878713          	addi	a4,a5,8
    80000e76:	f8e43023          	sd	a4,-128(s0)
    80000e7a:	4394                	lw	a3,0(a5)
    80000e7c:	fe842783          	lw	a5,-24(s0)
    80000e80:	37fd                	addiw	a5,a5,-1
    80000e82:	2781                	sext.w	a5,a5
    80000e84:	1782                	slli	a5,a5,0x20
    80000e86:	9381                	srli	a5,a5,0x20
    80000e88:	f9843703          	ld	a4,-104(s0)
    80000e8c:	97ba                	add	a5,a5,a4
    80000e8e:	0ff6f713          	andi	a4,a3,255
    80000e92:	00e78023          	sb	a4,0(a5)
    80000e96:	fe040723          	sb	zero,-18(s0)
    80000e9a:	fe0407a3          	sb	zero,-17(s0)
    80000e9e:	a8a1                	j	80000ef6 <vsnprintf+0x40a>
    80000ea0:	f8843783          	ld	a5,-120(s0)
    80000ea4:	0007c783          	lbu	a5,0(a5)
    80000ea8:	873e                	mv	a4,a5
    80000eaa:	02500793          	li	a5,37
    80000eae:	00f71663          	bne	a4,a5,80000eba <vsnprintf+0x3ce>
    80000eb2:	4785                	li	a5,1
    80000eb4:	fef407a3          	sb	a5,-17(s0)
    80000eb8:	a83d                	j	80000ef6 <vsnprintf+0x40a>
    80000eba:	fe842783          	lw	a5,-24(s0)
    80000ebe:	2785                	addiw	a5,a5,1
    80000ec0:	fef42423          	sw	a5,-24(s0)
    80000ec4:	fe842703          	lw	a4,-24(s0)
    80000ec8:	f9442783          	lw	a5,-108(s0)
    80000ecc:	2701                	sext.w	a4,a4
    80000ece:	2781                	sext.w	a5,a5
    80000ed0:	02f77363          	bgeu	a4,a5,80000ef6 <vsnprintf+0x40a>
    80000ed4:	fe842783          	lw	a5,-24(s0)
    80000ed8:	37fd                	addiw	a5,a5,-1
    80000eda:	2781                	sext.w	a5,a5
    80000edc:	1782                	slli	a5,a5,0x20
    80000ede:	9381                	srli	a5,a5,0x20
    80000ee0:	f9843703          	ld	a4,-104(s0)
    80000ee4:	97ba                	add	a5,a5,a4
    80000ee6:	f8843703          	ld	a4,-120(s0)
    80000eea:	00074703          	lbu	a4,0(a4)
    80000eee:	00e78023          	sb	a4,0(a5)
    80000ef2:	a011                	j	80000ef6 <vsnprintf+0x40a>
    80000ef4:	0001                	nop
    80000ef6:	f8843783          	ld	a5,-120(s0)
    80000efa:	0785                	addi	a5,a5,1
    80000efc:	f8f43423          	sd	a5,-120(s0)
    80000f00:	f8843783          	ld	a5,-120(s0)
    80000f04:	0007c783          	lbu	a5,0(a5)
    80000f08:	c00797e3          	bnez	a5,80000b16 <vsnprintf+0x2a>
    80000f0c:	fe842703          	lw	a4,-24(s0)
    80000f10:	f9442783          	lw	a5,-108(s0)
    80000f14:	2701                	sext.w	a4,a4
    80000f16:	2781                	sext.w	a5,a5
    80000f18:	00f77a63          	bgeu	a4,a5,80000f2c <vsnprintf+0x440>
    80000f1c:	fe846783          	lwu	a5,-24(s0)
    80000f20:	f9843703          	ld	a4,-104(s0)
    80000f24:	97ba                	add	a5,a5,a4
    80000f26:	00078023          	sb	zero,0(a5)
    80000f2a:	a005                	j	80000f4a <vsnprintf+0x45e>
    80000f2c:	f9442783          	lw	a5,-108(s0)
    80000f30:	2781                	sext.w	a5,a5
    80000f32:	cf81                	beqz	a5,80000f4a <vsnprintf+0x45e>
    80000f34:	f9442783          	lw	a5,-108(s0)
    80000f38:	37fd                	addiw	a5,a5,-1
    80000f3a:	2781                	sext.w	a5,a5
    80000f3c:	1782                	slli	a5,a5,0x20
    80000f3e:	9381                	srli	a5,a5,0x20
    80000f40:	f9843703          	ld	a4,-104(s0)
    80000f44:	97ba                	add	a5,a5,a4
    80000f46:	00078023          	sb	zero,0(a5)
    80000f4a:	fe842783          	lw	a5,-24(s0)
    80000f4e:	853e                	mv	a0,a5
    80000f50:	7466                	ld	s0,120(sp)
    80000f52:	6109                	addi	sp,sp,128
    80000f54:	8082                	ret

0000000080000f56 <snprintf>:
    80000f56:	0fe0000b          	checkcap	254
    80000f5a:	7159                	addi	sp,sp,-112
    80000f5c:	fc06                	sd	ra,56(sp)
    80000f5e:	f822                	sd	s0,48(sp)
    80000f60:	0080                	addi	s0,sp,64
    80000f62:	fca43c23          	sd	a0,-40(s0)
    80000f66:	fcc43423          	sd	a2,-56(s0)
    80000f6a:	e414                	sd	a3,8(s0)
    80000f6c:	e818                	sd	a4,16(s0)
    80000f6e:	ec1c                	sd	a5,24(s0)
    80000f70:	03043023          	sd	a6,32(s0)
    80000f74:	03143423          	sd	a7,40(s0)
    80000f78:	87ae                	mv	a5,a1
    80000f7a:	fcf42a23          	sw	a5,-44(s0)
    80000f7e:	03040793          	addi	a5,s0,48
    80000f82:	fcf43023          	sd	a5,-64(s0)
    80000f86:	fc043783          	ld	a5,-64(s0)
    80000f8a:	fd878793          	addi	a5,a5,-40
    80000f8e:	fef43023          	sd	a5,-32(s0)
    80000f92:	fe043703          	ld	a4,-32(s0)
    80000f96:	fd442783          	lw	a5,-44(s0)
    80000f9a:	86ba                	mv	a3,a4
    80000f9c:	fc843603          	ld	a2,-56(s0)
    80000fa0:	85be                	mv	a1,a5
    80000fa2:	fd843503          	ld	a0,-40(s0)
    80000fa6:	b47ff0ef          	jal	ra,80000aec <vsnprintf>
    80000faa:	87aa                	mv	a5,a0
    80000fac:	fef42623          	sw	a5,-20(s0)
    80000fb0:	fec42783          	lw	a5,-20(s0)
    80000fb4:	853e                	mv	a0,a5
    80000fb6:	70e2                	ld	ra,56(sp)
    80000fb8:	7442                	ld	s0,48(sp)
    80000fba:	6165                	addi	sp,sp,112
    80000fbc:	8082                	ret

Disassembly of section .checkcap-stack-reserved:

0000000080000fc0 <checkcap_stack-0x100000>:
	...

0000000080100fc0 <checkcap_stack>:
    80100fc0:	adde                	fsd	fs7,216(sp)
    80100fc2:	efbe                	sd	a5,472(sp)
	...

Disassembly of section .capability-matrix-reserved:

0000000080200fc0 <cap_matrix-0x100000>:
	...

0000000080300fc0 <cap_matrix>:
	...
    80300fe0:	0004                	0x4
	...

Disassembly of section .htif:

0000000080304000 <tohost>:
	...

0000000080304008 <fromhost>:
	...
